target datalayout = "e-m:e-p270:32:32-p271:32:32-p272:64:64-i64:64-i128:128-f80:128-n8:16:32:64-S128"
target triple = "x86_64-pc-linux-gnu"

%struct.quic_conn_st = type { %struct.quic_obj_st, ptr, ptr, ptr, ptr, ptr, ptr, ptr, ptr, %union.bio_addr_st, %struct.quic_thread_assist_st, i64, i16, i32, i32, i64, i32, i64, i32 }
%struct.quic_obj_st = type { %struct.ssl_st, ptr, ptr, ptr, ptr, ptr, i64, i8 }
%struct.ssl_st = type { i32, ptr, ptr, ptr, %struct.CRYPTO_REF_COUNT, ptr, %struct.crypto_ex_data_st }
%struct.CRYPTO_REF_COUNT = type { i32 }
%struct.crypto_ex_data_st = type { ptr, ptr }
%union.bio_addr_st = type { %struct.sockaddr_in6, [84 x i8] }
%struct.sockaddr_in6 = type { i16, i16, i32, %struct.in6_addr, i32 }
%struct.in6_addr = type { %union.anon }
%union.anon = type { [4 x i32] }
%struct.quic_thread_assist_st = type { ptr, ptr, ptr, i32, i32 }
%struct.qctx_st = type { ptr, ptr, ptr, ptr, ptr, i32, i32, i32, i32 }
%struct.quic_xso_st = type { %struct.quic_obj_st, ptr, ptr, i8, ptr, i64, i64, i32, i64, i32 }

; Function Attrs: nounwind uwtable
define internal i32 @qc_get_effective_incoming_stream_policy(ptr noundef %0) #0 {
  %2 = alloca i32, align 4
  %3 = alloca ptr, align 8
  store ptr %0, ptr %3, align 8, !tbaa !8
  %4 = load ptr, ptr %3, align 8, !tbaa !8
  %5 = getelementptr inbounds nuw %struct.quic_conn_st, ptr %4, i32 0, i32 16
  %6 = load i32, ptr %5, align 8, !tbaa !117
  switch i32 %6, label %27 [
    i32 0, label %7
  ]

7:                                                ; preds = %1
  %8 = load ptr, ptr %3, align 8, !tbaa !8
  %9 = getelementptr inbounds nuw %struct.quic_conn_st, ptr %8, i32 0, i32 8
  %10 = load ptr, ptr %9, align 8, !tbaa !155
  %11 = icmp eq ptr %10, null
  br i1 %11, label %12, label %20

12:                                               ; preds = %7
  %13 = load ptr, ptr %3, align 8, !tbaa !8
  %14 = getelementptr inbounds nuw %struct.quic_conn_st, ptr %13, i32 0, i32 12
  %15 = load i16, ptr %14, align 8
  %16 = lshr i16 %15, 4
  %17 = and i16 %16, 1
  %18 = zext i16 %17 to i32
  %19 = icmp ne i32 %18, 0
  br i1 %19, label %20, label %25

20:                                               ; preds = %12, %7
  %21 = load ptr, ptr %3, align 8, !tbaa !8
  %22 = getelementptr inbounds nuw %struct.quic_conn_st, ptr %21, i32 0, i32 13
  %23 = load i32, ptr %22, align 4, !tbaa !111
  %24 = icmp eq i32 %23, 0
  br i1 %24, label %25, label %26

25:                                               ; preds = %20, %12
  store i32 1, ptr %2, align 4
  br label %31

26:                                               ; preds = %20
  store i32 2, ptr %2, align 4
  br label %31

27:                                               ; preds = %1
  %28 = load ptr, ptr %3, align 8, !tbaa !8
  %29 = getelementptr inbounds nuw %struct.quic_conn_st, ptr %28, i32 0, i32 16
  %30 = load i32, ptr %29, align 8, !tbaa !117
  store i32 %30, ptr %2, align 4
  br label %31

31:                                               ; preds = %27, %26, %25
  %32 = load i32, ptr %2, align 4
  ret i32 %32
}

; Function Attrs: nounwind uwtable
define internal void @qc_update_reject_policy(ptr noundef %0) #0 {
  %2 = alloca ptr, align 8
  %3 = alloca i32, align 4
  %4 = alloca i32, align 4
  store ptr %0, ptr %2, align 8, !tbaa !8
  call void @llvm.lifetime.start.p0(i64 4, ptr %3) #10
  %5 = load ptr, ptr %2, align 8, !tbaa !8
  %6 = call i32 @qc_get_effective_incoming_stream_policy(ptr noundef %5)
  store i32 %6, ptr %3, align 4, !tbaa !122
  call void @llvm.lifetime.start.p0(i64 4, ptr %4) #10
  %7 = load i32, ptr %3, align 4, !tbaa !122
  %8 = icmp eq i32 %7, 2
  %9 = zext i1 %8 to i32
  store i32 %9, ptr %4, align 4, !tbaa !122
  %10 = load ptr, ptr %2, align 8, !tbaa !8
  %11 = getelementptr inbounds nuw %struct.quic_conn_st, ptr %10, i32 0, i32 6
  %12 = load ptr, ptr %11, align 8, !tbaa !106
  %13 = load i32, ptr %4, align 4, !tbaa !122
  %14 = load ptr, ptr %2, align 8, !tbaa !8
  %15 = getelementptr inbounds nuw %struct.quic_conn_st, ptr %14, i32 0, i32 17
  %16 = load i64, ptr %15, align 8, !tbaa !134
  call void @ossl_quic_channel_set_incoming_stream_auto_reject(ptr noundef %12, i32 noundef %13, i64 noundef %16)
  call void @llvm.lifetime.end.p0(i64 4, ptr %4) #10
  call void @llvm.lifetime.end.p0(i64 4, ptr %3) #10
  ret void
}

; Function Attrs: inlinehint nounwind uwtable
define internal ptr @ossl_quic_obj_get0_engine(ptr noundef %0) #3 {
  %2 = alloca ptr, align 8
  store ptr %0, ptr %2, align 8, !tbaa !172
  %3 = load ptr, ptr %2, align 8, !tbaa !172
  %4 = getelementptr inbounds nuw %struct.quic_obj_st, ptr %3, i32 0, i32 4
  %5 = load ptr, ptr %4, align 8, !tbaa !168
  ret ptr %5
}

; Function Attrs: nounwind uwtable
define internal void @qc_touch_default_xso(ptr noundef %0) #0 {
  %2 = alloca ptr, align 8
  store ptr %0, ptr %2, align 8, !tbaa !8
  %3 = load ptr, ptr %2, align 8, !tbaa !8
  %4 = getelementptr inbounds nuw %struct.quic_conn_st, ptr %3, i32 0, i32 12
  %5 = load i16, ptr %4, align 8
  %6 = and i16 %5, -17
  %7 = or i16 %6, 16
  store i16 %7, ptr %4, align 8
  %8 = load ptr, ptr %2, align 8, !tbaa !8
  call void @qc_update_reject_policy(ptr noundef %8)
  ret void
}

; Function Attrs: inlinehint nounwind uwtable
define internal i32 @CRYPTO_DOWN_REF(ptr noundef %0, ptr noundef %1) #3 {
  %3 = alloca ptr, align 8
  %4 = alloca ptr, align 8
  %5 = alloca i32, align 4
  %6 = alloca i32, align 4
  store ptr %0, ptr %3, align 8, !tbaa !167
  store ptr %1, ptr %4, align 8, !tbaa !180
  %7 = load ptr, ptr %3, align 8, !tbaa !167
  %8 = getelementptr inbounds nuw %struct.CRYPTO_REF_COUNT, ptr %7, i32 0, i32 0
  store i32 1, ptr %5, align 4, !tbaa !122
  %9 = load i32, ptr %5, align 4
  %10 = atomicrmw sub ptr %8, i32 %9 release, align 4
  store i32 %10, ptr %6, align 4
  %11 = load i32, ptr %6, align 4, !tbaa !122
  %12 = sub nsw i32 %11, 1
  %13 = load ptr, ptr %4, align 8, !tbaa !180
  store i32 %12, ptr %13, align 4, !tbaa !122
  %14 = load ptr, ptr %4, align 8, !tbaa !180
  %15 = load i32, ptr %14, align 4, !tbaa !122
  %16 = icmp eq i32 %15, 0
  br i1 %16, label %17, label %18

17:                                               ; preds = %2
  fence acquire
  br label %18

18:                                               ; preds = %17, %2
  ret i32 1
}

; Function Attrs: inlinehint nounwind uwtable
define internal ptr @ossl_quic_obj_get0_mutex(ptr noundef %0) #3 {
  %2 = alloca ptr, align 8
  store ptr %0, ptr %2, align 8, !tbaa !172
  %3 = load ptr, ptr %2, align 8, !tbaa !172
  %4 = call ptr @ossl_quic_obj_get0_engine(ptr noundef %3)
  %5 = call ptr @ossl_quic_engine_get0_mutex(ptr noundef %4)
  ret ptr %5
}

; Function Attrs: nounwind uwtable
define internal void @qctx_unlock(ptr noundef %0) #0 {
  %2 = alloca ptr, align 8
  store ptr %0, ptr %2, align 8, !tbaa !119
  %3 = load ptr, ptr %2, align 8, !tbaa !119
  %4 = getelementptr inbounds nuw %struct.qctx_st, ptr %3, i32 0, i32 0
  %5 = load ptr, ptr %4, align 8, !tbaa !166
  %6 = call ptr @ossl_quic_obj_get0_mutex(ptr noundef %5)
  call void @ossl_crypto_mutex_unlock(ptr noundef %6)
  ret void
}

; Function Attrs: nounwind uwtable
define internal void @qc_set_default_xso_keep_ref(ptr noundef %0, ptr noundef %1, i32 noundef %2, ptr noundef %3) #0 {
  %5 = alloca ptr, align 8
  %6 = alloca ptr, align 8
  %7 = alloca i32, align 4
  %8 = alloca ptr, align 8
  %9 = alloca i32, align 4
  %10 = alloca i32, align 4
  store ptr %0, ptr %5, align 8, !tbaa !8
  store ptr %1, ptr %6, align 8, !tbaa !156
  store i32 %2, ptr %7, align 4, !tbaa !122
  store ptr %3, ptr %8, align 8, !tbaa !234
  call void @llvm.lifetime.start.p0(i64 4, ptr %9) #10
  %11 = load ptr, ptr %8, align 8, !tbaa !234
  store ptr null, ptr %11, align 8, !tbaa !156
  %12 = load ptr, ptr %5, align 8, !tbaa !8
  %13 = getelementptr inbounds nuw %struct.quic_conn_st, ptr %12, i32 0, i32 8
  %14 = load ptr, ptr %13, align 8, !tbaa !155
  %15 = load ptr, ptr %6, align 8, !tbaa !156
  %16 = icmp ne ptr %14, %15
  br i1 %16, label %17, label %48

17:                                               ; preds = %4
  %18 = load ptr, ptr %5, align 8, !tbaa !8
  %19 = getelementptr inbounds nuw %struct.quic_conn_st, ptr %18, i32 0, i32 8
  %20 = load ptr, ptr %19, align 8, !tbaa !155
  %21 = load ptr, ptr %8, align 8, !tbaa !234
  store ptr %20, ptr %21, align 8, !tbaa !156
  %22 = load ptr, ptr %6, align 8, !tbaa !156
  %23 = load ptr, ptr %5, align 8, !tbaa !8
  %24 = getelementptr inbounds nuw %struct.quic_conn_st, ptr %23, i32 0, i32 8
  store ptr %22, ptr %24, align 8, !tbaa !155
  %25 = load ptr, ptr %6, align 8, !tbaa !156
  %26 = icmp eq ptr %25, null
  br i1 %26, label %27, label %41

27:                                               ; preds = %17
  %28 = load ptr, ptr %5, align 8, !tbaa !8
  %29 = getelementptr inbounds nuw %struct.quic_conn_st, ptr %28, i32 0, i32 0
  %30 = getelementptr inbounds nuw %struct.quic_obj_st, ptr %29, i32 0, i32 0
  %31 = call i32 @SSL_up_ref(ptr noundef %30)
  %32 = icmp ne i32 %31, 0
  %33 = xor i1 %32, true
  %34 = xor i1 %33, true
  %35 = zext i1 %34 to i32
  %36 = sext i32 %35 to i64
  %37 = call i64 @llvm.expect.i64(i64 %36, i64 1)
  %38 = icmp ne i64 %37, 0
  br i1 %38, label %40, label %39

39:                                               ; preds = %27
  store i32 1, ptr %10, align 4
  br label %54

40:                                               ; preds = %27
  br label %47

41:                                               ; preds = %17
  %42 = load ptr, ptr %5, align 8, !tbaa !8
  %43 = getelementptr inbounds nuw %struct.quic_conn_st, ptr %42, i32 0, i32 0
  %44 = getelementptr inbounds nuw %struct.quic_obj_st, ptr %43, i32 0, i32 0
  %45 = getelementptr inbounds nuw %struct.ssl_st, ptr %44, i32 0, i32 4
  %46 = call i32 @CRYPTO_DOWN_REF(ptr noundef %45, ptr noundef %9)
  br label %47

47:                                               ; preds = %41, %40
  br label %48

48:                                               ; preds = %47, %4
  %49 = load i32, ptr %7, align 4, !tbaa !122
  %50 = icmp ne i32 %49, 0
  br i1 %50, label %51, label %53

51:                                               ; preds = %48
  %52 = load ptr, ptr %5, align 8, !tbaa !8
  call void @qc_touch_default_xso(ptr noundef %52)
  br label %53

53:                                               ; preds = %51, %48
  store i32 0, ptr %10, align 4
  br label %54

54:                                               ; preds = %53, %39
  call void @llvm.lifetime.end.p0(i64 4, ptr %9) #10
  %55 = load i32, ptr %10, align 4
  switch i32 %55, label %57 [
    i32 0, label %56
    i32 1, label %56
  ]

56:                                               ; preds = %54, %54
  ret void

57:                                               ; preds = %54
  unreachable
}

; Function Attrs: nounwind uwtable
define internal void @qctx_lock(ptr noundef %0) #0 {
  %2 = alloca ptr, align 8
  store ptr %0, ptr %2, align 8, !tbaa !119
  %3 = load ptr, ptr %2, align 8, !tbaa !119
  %4 = getelementptr inbounds nuw %struct.qctx_st, ptr %3, i32 0, i32 0
  %5 = load ptr, ptr %4, align 8, !tbaa !166
  %6 = call ptr @ossl_quic_obj_get0_mutex(ptr noundef %5)
  call void @ossl_crypto_mutex_lock(ptr noundef %6)
  ret void
}

; Function Attrs: nounwind uwtable
define internal i32 @expect_quic_conn_only(ptr noundef %0, ptr noundef %1) #0 {
  %3 = alloca ptr, align 8
  %4 = alloca ptr, align 8
  store ptr %0, ptr %3, align 8, !tbaa !136
  store ptr %1, ptr %4, align 8, !tbaa !119
  %5 = load ptr, ptr %3, align 8, !tbaa !136
  %6 = load ptr, ptr %4, align 8, !tbaa !119
  %7 = call i32 @expect_quic_as(ptr noundef %5, ptr noundef %6, i32 noundef 1)
  ret i32 %7
}

; Function Attrs: nounwind uwtable
define ptr @ossl_quic_detach_stream(ptr noundef %0) #0 {
  %2 = alloca ptr, align 8
  %3 = alloca ptr, align 8
  %4 = alloca %struct.qctx_st, align 8
  %5 = alloca ptr, align 8
  %6 = alloca i32, align 4
  store ptr %0, ptr %3, align 8, !tbaa !136
  call void @llvm.lifetime.start.p0(i64 56, ptr %4) #10
  call void @llvm.lifetime.start.p0(i64 8, ptr %5) #10
  store ptr null, ptr %5, align 8, !tbaa !156
  %7 = load ptr, ptr %3, align 8, !tbaa !136
  %8 = call i32 @expect_quic_conn_only(ptr noundef %7, ptr noundef %4)
  %9 = icmp ne i32 %8, 0
  br i1 %9, label %11, label %10

10:                                               ; preds = %1
  store ptr null, ptr %2, align 8
  store i32 1, ptr %6, align 4
  br label %23

11:                                               ; preds = %1
  call void @qctx_lock(ptr noundef %4)
  %12 = getelementptr inbounds nuw %struct.qctx_st, ptr %4, i32 0, i32 3
  %13 = load ptr, ptr %12, align 8, !tbaa !123
  call void @qc_set_default_xso_keep_ref(ptr noundef %13, ptr noundef null, i32 noundef 1, ptr noundef %5)
  call void @qctx_unlock(ptr noundef %4)
  %14 = load ptr, ptr %5, align 8, !tbaa !156
  %15 = icmp ne ptr %14, null
  br i1 %15, label %16, label %20

16:                                               ; preds = %11
  %17 = load ptr, ptr %5, align 8, !tbaa !156
  %18 = getelementptr inbounds nuw %struct.quic_xso_st, ptr %17, i32 0, i32 0
  %19 = getelementptr inbounds nuw %struct.quic_obj_st, ptr %18, i32 0, i32 0
  br label %21

20:                                               ; preds = %11
  br label %21

21:                                               ; preds = %20, %16
  %22 = phi ptr [ %19, %16 ], [ null, %20 ]
  store ptr %22, ptr %2, align 8
  store i32 1, ptr %6, align 4
  br label %23

23:                                               ; preds = %21, %10
  call void @llvm.lifetime.end.p0(i64 8, ptr %5) #10
  call void @llvm.lifetime.end.p0(i64 56, ptr %4) #10
  %24 = load ptr, ptr %2, align 8
  ret ptr %24
}