; Function Attrs: nounwind uwtable
define ptr @ossl_quic_detach_stream(ptr noundef %0) local_unnamed_addr #0 {
  %2 = alloca %struct.qctx_st, align 8
  call void @llvm.lifetime.start.p0(i64 56, ptr nonnull %2) #12
  %3 = call fastcc range(i32 0, 2) i32 @expect_quic_as(ptr noundef %0, ptr noundef nonnull %2, i32 noundef 1)
  %.not = icmp eq i32 %3, 0
  br i1 %.not, label %30, label %4

4:                                                ; preds = %1
  %.val = load ptr, ptr %2, align 8, !tbaa !157
  %5 = getelementptr i8, ptr %.val, i64 88
  %.val.val = load ptr, ptr %5, align 8, !tbaa !143
  %6 = call ptr @ossl_quic_engine_get0_mutex(ptr noundef %.val.val) #12
  call void @ossl_crypto_mutex_lock(ptr noundef %6) #12
  %7 = getelementptr inbounds nuw i8, ptr %2, i64 24
  %8 = load ptr, ptr %7, align 8, !tbaa !134
  %9 = getelementptr inbounds nuw i8, ptr %8, i64 176
  %10 = load ptr, ptr %9, align 8, !tbaa !124
  %.not.i = icmp eq ptr %10, null
  br i1 %.not.i, label %CRYPTO_DOWN_REF.exit.i, label %11

11:                                               ; preds = %4
  store ptr null, ptr %9, align 8, !tbaa !124
  %12 = call i32 @SSL_up_ref(ptr noundef nonnull %8) #12
  %.not12.i = icmp eq i32 %12, 0
  br i1 %.not12.i, label %qc_set_default_xso_keep_ref.exit, label %CRYPTO_DOWN_REF.exit.i, !prof !202

CRYPTO_DOWN_REF.exit.i:                           ; preds = %4, %11
  %13 = getelementptr inbounds nuw i8, ptr %8, i64 336
  %14 = load i16, ptr %13, align 8
  %15 = or i16 %14, 16
  store i16 %15, ptr %13, align 8
  %16 = getelementptr inbounds nuw i8, ptr %8, i64 360
  %17 = load i32, ptr %16, align 8, !tbaa !122
  %cond.i.i.i.i = icmp eq i32 %17, 0
  br i1 %cond.i.i.i.i, label %18, label %qc_touch_default_xso.exit.i

18:                                               ; preds = %CRYPTO_DOWN_REF.exit.i
  %19 = getelementptr inbounds nuw i8, ptr %8, i64 340
  %20 = load i32, ptr %19, align 4, !tbaa !116
  %21 = icmp eq i32 %20, 0
  %spec.select.i.i.i.i = select i1 %21, i32 1, i32 2
  br label %qc_touch_default_xso.exit.i

qc_touch_default_xso.exit.i:                      ; preds = %18, %CRYPTO_DOWN_REF.exit.i
  %.0.i.i.i.i = phi i32 [ %17, %CRYPTO_DOWN_REF.exit.i ], [ %spec.select.i.i.i.i, %18 ]
  %22 = icmp eq i32 %.0.i.i.i.i, 2
  %23 = zext i1 %22 to i32
  %24 = getelementptr inbounds nuw i8, ptr %8, i64 160
  %25 = load ptr, ptr %24, align 8, !tbaa !113
  %26 = getelementptr inbounds nuw i8, ptr %8, i64 368
  %27 = load i64, ptr %26, align 8, !tbaa !125
  call void @ossl_quic_channel_set_incoming_stream_auto_reject(ptr noundef %25, i32 noundef %23, i64 noundef %27) #12
  br label %qc_set_default_xso_keep_ref.exit

qc_set_default_xso_keep_ref.exit:                 ; preds = %11, %qc_touch_default_xso.exit.i
  %.val2 = load ptr, ptr %2, align 8, !tbaa !157
  %28 = getelementptr i8, ptr %.val2, i64 88
  %.val2.val = load ptr, ptr %28, align 8, !tbaa !143
  %29 = call ptr @ossl_quic_engine_get0_mutex(ptr noundef %.val2.val) #12
  call void @ossl_crypto_mutex_unlock(ptr noundef %29) #12
  br label %30

30:                                               ; preds = %1, %qc_set_default_xso_keep_ref.exit
  %.0 = phi ptr [ %10, %qc_set_default_xso_keep_ref.exit ], [ null, %1 ]
  call void @llvm.lifetime.end.p0(i64 56, ptr nonnull %2) #12
  ret ptr %.0
}